target datalayout = "e-m:e-p270:32:32-p271:32:32-p272:64:64-i64:64-i128:128-f80:128-n8:16:32:64-S128"
target triple = "x86_64-pc-linux-gnu"

%struct.pdf_dict = type { ptr, ptr }
%struct.pdf_dict_node = type { ptr, ptr, i64, i32, ptr, ptr }

; Function Attrs: nounwind uwtable
define void @pdf_free_dict(ptr noundef %0) #0 {
  %2 = alloca ptr, align 8
  %3 = alloca ptr, align 8
  %4 = alloca ptr, align 8
  store ptr %0, ptr %2, align 8
  %5 = load ptr, ptr %2, align 8
  %6 = getelementptr inbounds %struct.pdf_dict, ptr %5, i32 0, i32 0
  %7 = load ptr, ptr %6, align 8
  store ptr %7, ptr %3, align 8
  br label %8

8:                                                ; preds = %43, %1
  %9 = load ptr, ptr %3, align 8
  %10 = icmp ne ptr %9, null
  br i1 %10, label %11, label %49

11:                                               ; preds = %8
  %12 = load ptr, ptr %3, align 8
  %13 = getelementptr inbounds %struct.pdf_dict_node, ptr %12, i32 0, i32 0
  %14 = load ptr, ptr %13, align 8
  call void @free(ptr noundef %14) #7
  %15 = load ptr, ptr %3, align 8
  %16 = getelementptr inbounds %struct.pdf_dict_node, ptr %15, i32 0, i32 3
  %17 = load i32, ptr %16, align 8
  %18 = icmp eq i32 %17, 1
  br i1 %18, label %19, label %23

19:                                               ; preds = %11
  %20 = load ptr, ptr %3, align 8
  %21 = getelementptr inbounds %struct.pdf_dict_node, ptr %20, i32 0, i32 1
  %22 = load ptr, ptr %21, align 8
  call void @free(ptr noundef %22) #7
  br label %43

23:                                               ; preds = %11
  %24 = load ptr, ptr %3, align 8
  %25 = getelementptr inbounds %struct.pdf_dict_node, ptr %24, i32 0, i32 3
  %26 = load i32, ptr %25, align 8
  %27 = icmp eq i32 %26, 2
  br i1 %27, label %28, label %32

28:                                               ; preds = %23
  %29 = load ptr, ptr %3, align 8
  %30 = getelementptr inbounds %struct.pdf_dict_node, ptr %29, i32 0, i32 1
  %31 = load ptr, ptr %30, align 8
  call void @pdf_free_array(ptr noundef %31)
  br label %42

32:                                               ; preds = %23
  %33 = load ptr, ptr %3, align 8
  %34 = getelementptr inbounds %struct.pdf_dict_node, ptr %33, i32 0, i32 3
  %35 = load i32, ptr %34, align 8
  %36 = icmp eq i32 %35, 3
  br i1 %36, label %37, label %41

37:                                               ; preds = %32
  %38 = load ptr, ptr %3, align 8
  %39 = getelementptr inbounds %struct.pdf_dict_node, ptr %38, i32 0, i32 1
  %40 = load ptr, ptr %39, align 8
  call void @pdf_free_dict(ptr noundef %40)
  br label %41

41:                                               ; preds = %37, %32
  br label %42

42:                                               ; preds = %41, %28
  br label %43

43:                                               ; preds = %42, %19
  %44 = load ptr, ptr %3, align 8
  %45 = getelementptr inbounds %struct.pdf_dict_node, ptr %44, i32 0, i32 5
  %46 = load ptr, ptr %45, align 8
  store ptr %46, ptr %4, align 8
  %47 = load ptr, ptr %3, align 8
  call void @free(ptr noundef %47) #7
  %48 = load ptr, ptr %4, align 8
  store ptr %48, ptr %3, align 8
  br label %8

49:                                               ; preds = %8
  %50 = load ptr, ptr %2, align 8
  call void @free(ptr noundef %50) #7
  ret void
}