; Function Attrs: nounwind uwtable
define void @pdf_free_dict(ptr nocapture noundef %0) local_unnamed_addr #0 {
  %2 = load ptr, ptr %0, align 8
  %.not14 = icmp eq ptr %2, null
  br i1 %.not14, label %._crit_edge, label %.lr.ph

.lr.ph:                                           ; preds = %1, %15
  %.015 = phi ptr [ %17, %15 ], [ %2, %1 ]
  %3 = load ptr, ptr %.015, align 8
  tail call void @free(ptr noundef %3) #14
  %4 = getelementptr inbounds i8, ptr %.015, i64 24
  %5 = load i32, ptr %4, align 8
  switch i32 %5, label %15 [
    i32 1, label %6
    i32 2, label %9
    i32 3, label %12
  ]

6:                                                ; preds = %.lr.ph
  %7 = getelementptr inbounds i8, ptr %.015, i64 8
  %8 = load ptr, ptr %7, align 8
  tail call void @free(ptr noundef %8) #14
  br label %15

9:                                                ; preds = %.lr.ph
  %10 = getelementptr inbounds i8, ptr %.015, i64 8
  %11 = load ptr, ptr %10, align 8
  tail call void @pdf_free_array(ptr noundef %11)
  br label %15

12:                                               ; preds = %.lr.ph
  %13 = getelementptr inbounds i8, ptr %.015, i64 8
  %14 = load ptr, ptr %13, align 8
  tail call void @pdf_free_dict(ptr noundef %14)
  br label %15

15:                                               ; preds = %.lr.ph, %9, %12, %6
  %16 = getelementptr inbounds i8, ptr %.015, i64 40
  %17 = load ptr, ptr %16, align 8
  tail call void @free(ptr noundef nonnull %.015) #14
  %.not = icmp eq ptr %17, null
  br i1 %.not, label %._crit_edge, label %.lr.ph

._crit_edge:                                      ; preds = %15, %1
  tail call void @free(ptr noundef %0) #14
  ret void
}